; Function Attrs: mustprogress uwtable
define void @_ZNK5faiss17AdditiveQuantizer6decodeEPKhPfm(ptr noundef nonnull align 8 dereferenceable(308) %0, ptr noundef %1, ptr noundef %2, i64 noundef %3) unnamed_addr #0 align 2 personality ptr @__gxx_personality_v0 {
  %5 = alloca ptr, align 8
  %6 = alloca ptr, align 8
  %7 = alloca i64, align 8
  %8 = alloca %"class.std::__cxx11::basic_string", align 8
  %9 = alloca i32, align 4
  %10 = tail call i32 @__kmpc_global_thread_num(ptr nonnull @2)
  store ptr %1, ptr %5, align 8
  store ptr %2, ptr %6, align 8
  store i64 %3, ptr %7, align 8
  %11 = getelementptr inbounds i8, ptr %0, i64 130
  %12 = load i8, ptr %11, align 2
  %13 = and i8 %12, 1
  %.not = icmp eq i8 %13, 0
  br i1 %.not, label %14, label %30

14:                                               ; preds = %4
  call void @_ZNSt7__cxx1112basic_stringIcSt11char_traitsIcESaIcEEC1Ev(ptr noundef nonnull align 8 dereferenceable(32) %8) #15
  %15 = call i32 (ptr, i64, ptr, ...) @snprintf(ptr noundef null, i64 noundef 0, ptr noundef nonnull @.str.7, ptr noundef nonnull @.str.8) #15
  %16 = add nsw i32 %15, 1
  %17 = sext i32 %16 to i64
  invoke void @_ZNSt7__cxx1112basic_stringIcSt11char_traitsIcESaIcEE6resizeEm(ptr noundef nonnull align 8 dereferenceable(32) %8, i64 noundef %17)
          to label %18 unwind label %25

18:                                               ; preds = %14
  %19 = invoke noundef nonnull align 1 dereferenceable(1) ptr @_ZNSt7__cxx1112basic_stringIcSt11char_traitsIcESaIcEEixEm(ptr noundef nonnull align 8 dereferenceable(32) %8, i64 noundef 0)
          to label %20 unwind label %25

20:                                               ; preds = %18
  %21 = call noundef i64 @_ZNKSt7__cxx1112basic_stringIcSt11char_traitsIcESaIcEE4sizeEv(ptr noundef nonnull align 8 dereferenceable(32) %8) #15
  %22 = call i32 (ptr, i64, ptr, ...) @snprintf(ptr noundef nonnull %19, i64 noundef %21, ptr noundef nonnull @.str.7, ptr noundef nonnull @.str.8) #15
  %23 = call ptr @__cxa_allocate_exception(i64 40) #15
  invoke void @_ZN5faiss14FaissExceptionC1ERKNSt7__cxx1112basic_stringIcSt11char_traitsIcESaIcEEEPKcSA_i(ptr noundef nonnull align 8 dereferenceable(40) %23, ptr noundef nonnull align 8 dereferenceable(32) %8, ptr noundef nonnull @__PRETTY_FUNCTION__._ZNK5faiss17AdditiveQuantizer6decodeEPKhPfm, ptr noundef nonnull @.str.3, i32 noundef 261)
          to label %24 unwind label %27

24:                                               ; preds = %20
  invoke void @__cxa_throw(ptr nonnull %23, ptr nonnull @_ZTIN5faiss14FaissExceptionE, ptr nonnull @_ZN5faiss14FaissExceptionD2Ev) #20
          to label %35 unwind label %25

25:                                               ; preds = %24, %18, %14
  %26 = landingpad { ptr, i32 }
          cleanup
  br label %29

27:                                               ; preds = %20
  %28 = landingpad { ptr, i32 }
          cleanup
  call void @__cxa_free_exception(ptr %23) #15
  br label %29

29:                                               ; preds = %27, %25
  %.pn = phi { ptr, i32 } [ %26, %25 ], [ %28, %27 ]
  call void @_ZNSt7__cxx1112basic_stringIcSt11char_traitsIcESaIcEED1Ev(ptr noundef nonnull align 8 dereferenceable(32) %8) #15
  resume { ptr, i32 } %.pn

30:                                               ; preds = %4
  %31 = icmp ugt i64 %3, 100
  br i1 %31, label %32, label %33

32:                                               ; preds = %30
  call void (ptr, i32, ptr, ...) @__kmpc_fork_call(ptr nonnull @2, i32 4, ptr nonnull @_ZNK5faiss17AdditiveQuantizer6decodeEPKhPfm.omp_outlined, ptr nonnull %7, ptr nonnull %5, ptr nonnull %0, ptr nonnull %6)
  br label %34

33:                                               ; preds = %30
  tail call void @__kmpc_serialized_parallel(ptr nonnull @2, i32 %10)
  store i32 %10, ptr %9, align 4
  call void @_ZNK5faiss17AdditiveQuantizer6decodeEPKhPfm.omp_outlined(ptr nonnull %9, ptr nonnull poison, ptr %7, ptr %5, ptr nonnull %0, ptr %6) #15
  tail call void @__kmpc_end_serialized_parallel(ptr nonnull @2, i32 %10)
  br label %34

34:                                               ; preds = %33, %32
  ret void

35:                                               ; preds = %24
  unreachable
}